target datalayout = "e-m:e-p270:32:32-p271:32:32-p272:64:64-i64:64-i128:128-f80:128-n8:16:32:64-S128"
target triple = "x86_64-pc-linux-gnu"

@.str = private unnamed_addr constant [34 x i8] c"../openssl/crypto/x509/x509_vfy.c\00", align 1
@__func__.X509_get_pubkey_parameters = private unnamed_addr constant [27 x i8] c"X509_get_pubkey_parameters\00", align 1

; Function Attrs: inlinehint nounwind uwtable
define internal ptr @ossl_check_const_X509_sk_type(ptr noundef %0) #3 {
  %2 = alloca ptr, align 8
  store ptr %0, ptr %2, align 8, !tbaa !60
  %3 = load ptr, ptr %2, align 8, !tbaa !60
  ret ptr %3
}

; Function Attrs: nounwind uwtable
define i32 @X509_get_pubkey_parameters(ptr noundef %0, ptr noundef %1) #0 {
  %3 = alloca i32, align 4
  %4 = alloca ptr, align 8
  %5 = alloca ptr, align 8
  %6 = alloca ptr, align 8
  %7 = alloca ptr, align 8
  %8 = alloca i32, align 4
  %9 = alloca i32, align 4
  %10 = alloca i32, align 4
  store ptr %0, ptr %4, align 8, !tbaa !10
  store ptr %1, ptr %5, align 8, !tbaa !60
  call void @llvm.lifetime.start.p0(i64 8, ptr %6) #8
  store ptr null, ptr %6, align 8, !tbaa !10
  call void @llvm.lifetime.start.p0(i64 8, ptr %7) #8
  call void @llvm.lifetime.start.p0(i64 4, ptr %8) #8
  call void @llvm.lifetime.start.p0(i64 4, ptr %9) #8
  %11 = load ptr, ptr %4, align 8, !tbaa !10
  %12 = icmp ne ptr %11, null
  br i1 %12, label %13, label %18

13:                                               ; preds = %2
  %14 = load ptr, ptr %4, align 8, !tbaa !10
  %15 = call i32 @EVP_PKEY_missing_parameters(ptr noundef %14)
  %16 = icmp ne i32 %15, 0
  br i1 %16, label %18, label %17

17:                                               ; preds = %13
  store i32 1, ptr %3, align 4
  store i32 1, ptr %10, align 4
  br label %76

18:                                               ; preds = %13, %2
  store i32 0, ptr %8, align 4, !tbaa !8
  br label %19

19:                                               ; preds = %40, %18
  %20 = load i32, ptr %8, align 4, !tbaa !8
  %21 = load ptr, ptr %5, align 8, !tbaa !60
  %22 = call ptr @ossl_check_const_X509_sk_type(ptr noundef %21)
  %23 = call i32 @OPENSSL_sk_num(ptr noundef %22)
  %24 = icmp slt i32 %20, %23
  br i1 %24, label %25, label %43

25:                                               ; preds = %19
  %26 = load ptr, ptr %5, align 8, !tbaa !60
  %27 = call ptr @ossl_check_const_X509_sk_type(ptr noundef %26)
  %28 = load i32, ptr %8, align 4, !tbaa !8
  %29 = call ptr @OPENSSL_sk_value(ptr noundef %27, i32 noundef %28)
  %30 = call ptr @X509_get0_pubkey(ptr noundef %29)
  store ptr %30, ptr %6, align 8, !tbaa !10
  %31 = load ptr, ptr %6, align 8, !tbaa !10
  %32 = icmp eq ptr %31, null
  br i1 %32, label %33, label %34

33:                                               ; preds = %25
  call void @ERR_new()
  call void @ERR_set_debug(ptr noundef @.str, i32 noundef 2139, ptr noundef @__func__.X509_get_pubkey_parameters)
  call void (i32, i32, ptr, ...) @ERR_set_error(i32 noundef 11, i32 noundef 108, ptr noundef null)
  store i32 0, ptr %3, align 4
  store i32 1, ptr %10, align 4
  br label %76

34:                                               ; preds = %25
  %35 = load ptr, ptr %6, align 8, !tbaa !10
  %36 = call i32 @EVP_PKEY_missing_parameters(ptr noundef %35)
  %37 = icmp ne i32 %36, 0
  br i1 %37, label %39, label %38

38:                                               ; preds = %34
  br label %43

39:                                               ; preds = %34
  store ptr null, ptr %6, align 8, !tbaa !10
  br label %40

40:                                               ; preds = %39
  %41 = load i32, ptr %8, align 4, !tbaa !8
  %42 = add nsw i32 %41, 1
  store i32 %42, ptr %8, align 4, !tbaa !8
  br label %19, !llvm.loop !92

43:                                               ; preds = %38, %19
  %44 = load ptr, ptr %6, align 8, !tbaa !10
  %45 = icmp eq ptr %44, null
  br i1 %45, label %46, label %47

46:                                               ; preds = %43
  call void @ERR_new()
  call void @ERR_set_debug(ptr noundef @.str, i32 noundef 2147, ptr noundef @__func__.X509_get_pubkey_parameters)
  call void (i32, i32, ptr, ...) @ERR_set_error(i32 noundef 11, i32 noundef 107, ptr noundef null)
  store i32 0, ptr %3, align 4
  store i32 1, ptr %10, align 4
  br label %76

47:                                               ; preds = %43
  %48 = load i32, ptr %8, align 4, !tbaa !8
  %49 = sub nsw i32 %48, 1
  store i32 %49, ptr %9, align 4, !tbaa !8
  br label %50

50:                                               ; preds = %65, %47
  %51 = load i32, ptr %9, align 4, !tbaa !8
  %52 = icmp sge i32 %51, 0
  br i1 %52, label %53, label %68

53:                                               ; preds = %50
  %54 = load ptr, ptr %5, align 8, !tbaa !60
  %55 = call ptr @ossl_check_const_X509_sk_type(ptr noundef %54)
  %56 = load i32, ptr %9, align 4, !tbaa !8
  %57 = call ptr @OPENSSL_sk_value(ptr noundef %55, i32 noundef %56)
  %58 = call ptr @X509_get0_pubkey(ptr noundef %57)
  store ptr %58, ptr %7, align 8, !tbaa !10
  %59 = load ptr, ptr %7, align 8, !tbaa !10
  %60 = load ptr, ptr %6, align 8, !tbaa !10
  %61 = call i32 @EVP_PKEY_copy_parameters(ptr noundef %59, ptr noundef %60)
  %62 = icmp ne i32 %61, 0
  br i1 %62, label %64, label %63

63:                                               ; preds = %53
  store i32 0, ptr %3, align 4
  store i32 1, ptr %10, align 4
  br label %76

64:                                               ; preds = %53
  br label %65

65:                                               ; preds = %64
  %66 = load i32, ptr %9, align 4, !tbaa !8
  %67 = add nsw i32 %66, -1
  store i32 %67, ptr %9, align 4, !tbaa !8
  br label %50, !llvm.loop !93

68:                                               ; preds = %50
  %69 = load ptr, ptr %4, align 8, !tbaa !10
  %70 = icmp ne ptr %69, null
  br i1 %70, label %71, label %75

71:                                               ; preds = %68
  %72 = load ptr, ptr %4, align 8, !tbaa !10
  %73 = load ptr, ptr %6, align 8, !tbaa !10
  %74 = call i32 @EVP_PKEY_copy_parameters(ptr noundef %72, ptr noundef %73)
  store i32 %74, ptr %3, align 4
  store i32 1, ptr %10, align 4
  br label %76

75:                                               ; preds = %68
  store i32 1, ptr %3, align 4
  store i32 1, ptr %10, align 4
  br label %76

76:                                               ; preds = %75, %71, %63, %46, %33, %17
  call void @llvm.lifetime.end.p0(i64 4, ptr %9) #8
  call void @llvm.lifetime.end.p0(i64 4, ptr %8) #8
  call void @llvm.lifetime.end.p0(i64 8, ptr %7) #8
  call void @llvm.lifetime.end.p0(i64 8, ptr %6) #8
  %77 = load i32, ptr %3, align 4
  ret i32 %77
}