; Function Attrs: nounwind uwtable
define i32 @X509_get_pubkey_parameters(ptr noundef %0, ptr noundef %1) local_unnamed_addr #0 {
  %.not = icmp eq ptr %0, null
  br i1 %.not, label %5, label %3

3:                                                ; preds = %2
  %4 = tail call i32 @EVP_PKEY_missing_parameters(ptr noundef nonnull %0) #10
  %.not26 = icmp eq i32 %4, 0
  br i1 %.not26, label %.loopexit, label %5

5:                                                ; preds = %3, %2
  %6 = tail call i32 @OPENSSL_sk_num(ptr noundef %1) #10
  %7 = icmp sgt i32 %6, 0
  br i1 %7, label %.lr.ph, label %._crit_edge

.lr.ph:                                           ; preds = %5, %14
  %.02033 = phi i32 [ %15, %14 ], [ 0, %5 ]
  %8 = tail call ptr @OPENSSL_sk_value(ptr noundef %1, i32 noundef %.02033) #10
  %9 = tail call ptr @X509_get0_pubkey(ptr noundef %8) #10
  %10 = icmp eq ptr %9, null
  br i1 %10, label %11, label %12

11:                                               ; preds = %.lr.ph
  tail call void @ERR_new() #10
  tail call void @ERR_set_debug(ptr noundef nonnull @.str, i32 noundef 2139, ptr noundef nonnull @__func__.X509_get_pubkey_parameters) #10
  tail call void (i32, i32, ptr, ...) @ERR_set_error(i32 noundef 11, i32 noundef 108, ptr noundef null) #10
  br label %.loopexit

12:                                               ; preds = %.lr.ph
  %13 = tail call i32 @EVP_PKEY_missing_parameters(ptr noundef nonnull %9) #10
  %.not27 = icmp eq i32 %13, 0
  br i1 %.not27, label %.preheader, label %14

14:                                               ; preds = %12
  %15 = add nuw nsw i32 %.02033, 1
  %16 = tail call i32 @OPENSSL_sk_num(ptr noundef %1) #10
  %17 = icmp slt i32 %15, %16
  br i1 %17, label %.lr.ph, label %._crit_edge, !llvm.loop !103

._crit_edge:                                      ; preds = %14, %5
  tail call void @ERR_new() #10
  tail call void @ERR_set_debug(ptr noundef nonnull @.str, i32 noundef 2147, ptr noundef nonnull @__func__.X509_get_pubkey_parameters) #10
  tail call void (i32, i32, ptr, ...) @ERR_set_error(i32 noundef 11, i32 noundef 107, ptr noundef null) #10
  br label %.loopexit

.preheader:                                       ; preds = %12, %19
  %.0.in = phi i32 [ %.0, %19 ], [ %.02033, %12 ]
  %18 = icmp sgt i32 %.0.in, 0
  br i1 %18, label %19, label %23

19:                                               ; preds = %.preheader
  %.0 = add nsw i32 %.0.in, -1
  %20 = tail call ptr @OPENSSL_sk_value(ptr noundef %1, i32 noundef %.0) #10
  %21 = tail call ptr @X509_get0_pubkey(ptr noundef %20) #10
  %22 = tail call i32 @EVP_PKEY_copy_parameters(ptr noundef %21, ptr noundef nonnull %9) #10
  %.not28 = icmp eq i32 %22, 0
  br i1 %.not28, label %.loopexit, label %.preheader, !llvm.loop !104

23:                                               ; preds = %.preheader
  br i1 %.not, label %.loopexit, label %24

24:                                               ; preds = %23
  %25 = tail call i32 @EVP_PKEY_copy_parameters(ptr noundef nonnull %0, ptr noundef nonnull %9) #10
  br label %.loopexit

.loopexit:                                        ; preds = %19, %23, %3, %24, %._crit_edge, %11
  %.021 = phi i32 [ 0, %11 ], [ 0, %._crit_edge ], [ %25, %24 ], [ 1, %3 ], [ 1, %23 ], [ 0, %19 ]
  ret i32 %.021
}